target datalayout = "e-m:e-p270:32:32-p271:32:32-p272:64:64-i64:64-i128:128-f80:128-n8:16:32:64-S128"
target triple = "x86_64-unknown-linux-gnu"

%struct.QTailQLink = type { ptr, ptr }
%struct.USBPacket = type { i32, i64, ptr, i32, %struct.QEMUIOVector, i64, i8, i8, i32, i32, i32, ptr, %union.anon.10, %union.anon.11 }
%struct.QEMUIOVector = type { ptr, i32, %union.anon.7 }
%union.anon.7 = type { %struct.anon.8 }
%struct.anon.8 = type { i32, %struct.iovec }
%struct.iovec = type { ptr, i64 }
%union.anon.10 = type { %struct.QTailQLink }
%union.anon.11 = type { %struct.QTailQLink }
%struct.QEMUSGList = type { ptr, i32, i32, i64, ptr, ptr }
%struct.EHCIQueue = type { ptr, %union.anon.16, i32, i64, i32, i32, %struct.EHCIqh, i32, i32, i32, ptr, %union.anon.17 }
%union.anon.16 = type { %struct.QTailQLink }
%struct.EHCIqh = type { i32, i32, i32, i32, i32, i32, i32, [5 x i32] }
%union.anon.17 = type { %struct.QTailQLink }
%struct.EHCIPacket = type { ptr, %union.anon.18, %struct.EHCIqtd, i32, %struct.USBPacket, %struct.QEMUSGList, i32, i32 }
%union.anon.18 = type { %struct.QTailQLink }
%struct.EHCIqtd = type { i32, i32, i32, [5 x i32] }

@.str.24 = private unnamed_addr constant [26 x i8] c"../qemu/hw/usb/hcd-ehci.c\00", align 1
@.str.46 = private unnamed_addr constant [10 x i8] c"p != NULL\00", align 1
@.str.47 = private unnamed_addr constant [25 x i8] c"p->qtdaddr == q->qtdaddr\00", align 1
@__PRETTY_FUNCTION__.ehci_qh_do_overlay = private unnamed_addr constant [36 x i8] c"int ehci_qh_do_overlay(EHCIQueue *)\00", align 1

; Function Attrs: nounwind sspstrong uwtable
define internal void @ehci_flush_qh(ptr noundef %q) #0 {
entry:
  %q.addr = alloca ptr, align 8
  %qh = alloca ptr, align 8
  %dwords = alloca i32, align 4
  %addr = alloca i32, align 4
  store ptr %q, ptr %q.addr, align 8
  %0 = load ptr, ptr %q.addr, align 8
  %qh1 = getelementptr inbounds %struct.EHCIQueue, ptr %0, i32 0, i32 6
  store ptr %qh1, ptr %qh, align 8
  store i32 12, ptr %dwords, align 4
  %1 = load ptr, ptr %q.addr, align 8
  %qhaddr = getelementptr inbounds %struct.EHCIQueue, ptr %1, i32 0, i32 7
  %2 = load i32, ptr %qhaddr, align 8
  %and = and i32 %2, -32
  store i32 %and, ptr %addr, align 4
  %3 = load ptr, ptr %q.addr, align 8
  %ehci = getelementptr inbounds %struct.EHCIQueue, ptr %3, i32 0, i32 0
  %4 = load ptr, ptr %ehci, align 8
  %5 = load i32, ptr %addr, align 4
  %conv = zext i32 %5 to i64
  %add = add i64 %conv, 12
  %conv2 = trunc i64 %add to i32
  %6 = load ptr, ptr %qh, align 8
  %add.ptr = getelementptr i32, ptr %6, i64 3
  %7 = load i32, ptr %dwords, align 4
  %sub = sub i32 %7, 3
  %call = call i32 @put_dwords(ptr noundef %4, i32 noundef %conv2, ptr noundef %add.ptr, i32 noundef %sub)
  ret void
}

; Function Attrs: nounwind sspstrong uwtable
define internal i32 @ehci_qh_do_overlay(ptr noundef %q) #0 {
entry:
  %q.addr = alloca ptr, align 8
  %p = alloca ptr, align 8
  %i = alloca i32, align 4
  %dtoggle = alloca i32, align 4
  %ping = alloca i32, align 4
  %eps = alloca i32, align 4
  %reload = alloca i32, align 4
  %val = alloca i32, align 4
  store ptr %q, ptr %q.addr, align 8
  %0 = load ptr, ptr %q.addr, align 8
  %packets = getelementptr inbounds %struct.EHCIQueue, ptr %0, i32 0, i32 11
  %1 = load ptr, ptr %packets, align 8
  store ptr %1, ptr %p, align 8
  %2 = load ptr, ptr %p, align 8
  %cmp = icmp ne ptr %2, null
  br i1 %cmp, label %if.then, label %if.else

if.then:                                          ; preds = %entry
  br label %if.end

if.else:                                          ; preds = %entry
  call void @__assert_fail(ptr noundef @.str.46, ptr noundef @.str.24, i32 noundef 1144, ptr noundef @__PRETTY_FUNCTION__.ehci_qh_do_overlay) #12
  unreachable

if.end:                                           ; preds = %if.then
  %3 = load ptr, ptr %p, align 8
  %qtdaddr = getelementptr inbounds %struct.EHCIPacket, ptr %3, i32 0, i32 3
  %4 = load i32, ptr %qtdaddr, align 8
  %5 = load ptr, ptr %q.addr, align 8
  %qtdaddr1 = getelementptr inbounds %struct.EHCIQueue, ptr %5, i32 0, i32 8
  %6 = load i32, ptr %qtdaddr1, align 4
  %cmp2 = icmp eq i32 %4, %6
  br i1 %cmp2, label %if.then3, label %if.else4

if.then3:                                         ; preds = %if.end
  br label %if.end5

if.else4:                                         ; preds = %if.end
  call void @__assert_fail(ptr noundef @.str.47, ptr noundef @.str.24, i32 noundef 1145, ptr noundef @__PRETTY_FUNCTION__.ehci_qh_do_overlay) #12
  unreachable

if.end5:                                          ; preds = %if.then3
  %7 = load ptr, ptr %q.addr, align 8
  %qh = getelementptr inbounds %struct.EHCIQueue, ptr %7, i32 0, i32 6
  %token = getelementptr inbounds %struct.EHCIqh, ptr %qh, i32 0, i32 6
  %8 = load i32, ptr %token, align 8
  %and = and i32 %8, -2147483648
  store i32 %and, ptr %dtoggle, align 4
  %9 = load ptr, ptr %q.addr, align 8
  %qh6 = getelementptr inbounds %struct.EHCIQueue, ptr %9, i32 0, i32 6
  %token7 = getelementptr inbounds %struct.EHCIqh, ptr %qh6, i32 0, i32 6
  %10 = load i32, ptr %token7, align 8
  %and8 = and i32 %10, 1
  store i32 %and8, ptr %ping, align 4
  %11 = load ptr, ptr %p, align 8
  %qtdaddr9 = getelementptr inbounds %struct.EHCIPacket, ptr %11, i32 0, i32 3
  %12 = load i32, ptr %qtdaddr9, align 8
  %13 = load ptr, ptr %q.addr, align 8
  %qh10 = getelementptr inbounds %struct.EHCIQueue, ptr %13, i32 0, i32 6
  %current_qtd = getelementptr inbounds %struct.EHCIqh, ptr %qh10, i32 0, i32 3
  store i32 %12, ptr %current_qtd, align 4
  %14 = load ptr, ptr %p, align 8
  %qtd = getelementptr inbounds %struct.EHCIPacket, ptr %14, i32 0, i32 2
  %next = getelementptr inbounds %struct.EHCIqtd, ptr %qtd, i32 0, i32 0
  %15 = load i32, ptr %next, align 8
  %16 = load ptr, ptr %q.addr, align 8
  %qh11 = getelementptr inbounds %struct.EHCIQueue, ptr %16, i32 0, i32 6
  %next_qtd = getelementptr inbounds %struct.EHCIqh, ptr %qh11, i32 0, i32 4
  store i32 %15, ptr %next_qtd, align 8
  %17 = load ptr, ptr %p, align 8
  %qtd12 = getelementptr inbounds %struct.EHCIPacket, ptr %17, i32 0, i32 2
  %altnext = getelementptr inbounds %struct.EHCIqtd, ptr %qtd12, i32 0, i32 1
  %18 = load i32, ptr %altnext, align 4
  %19 = load ptr, ptr %q.addr, align 8
  %qh13 = getelementptr inbounds %struct.EHCIQueue, ptr %19, i32 0, i32 6
  %altnext_qtd = getelementptr inbounds %struct.EHCIqh, ptr %qh13, i32 0, i32 5
  store i32 %18, ptr %altnext_qtd, align 4
  %20 = load ptr, ptr %p, align 8
  %qtd14 = getelementptr inbounds %struct.EHCIPacket, ptr %20, i32 0, i32 2
  %token15 = getelementptr inbounds %struct.EHCIqtd, ptr %qtd14, i32 0, i32 2
  %21 = load i32, ptr %token15, align 8
  %22 = load ptr, ptr %q.addr, align 8
  %qh16 = getelementptr inbounds %struct.EHCIQueue, ptr %22, i32 0, i32 6
  %token17 = getelementptr inbounds %struct.EHCIqh, ptr %qh16, i32 0, i32 6
  store i32 %21, ptr %token17, align 8
  %23 = load ptr, ptr %q.addr, align 8
  %qh18 = getelementptr inbounds %struct.EHCIQueue, ptr %23, i32 0, i32 6
  %epchar = getelementptr inbounds %struct.EHCIqh, ptr %qh18, i32 0, i32 1
  %24 = load i32, ptr %epchar, align 4
  %and19 = and i32 %24, 12288
  %shr = lshr i32 %and19, 12
  store i32 %shr, ptr %eps, align 4
  %25 = load i32, ptr %eps, align 4
  %cmp20 = icmp eq i32 %25, 2
  br i1 %cmp20, label %if.then21, label %if.end27

if.then21:                                        ; preds = %if.end5
  %26 = load ptr, ptr %q.addr, align 8
  %qh22 = getelementptr inbounds %struct.EHCIQueue, ptr %26, i32 0, i32 6
  %token23 = getelementptr inbounds %struct.EHCIqh, ptr %qh22, i32 0, i32 6
  %27 = load i32, ptr %token23, align 8
  %and24 = and i32 %27, -2
  store i32 %and24, ptr %token23, align 8
  %28 = load i32, ptr %ping, align 4
  %29 = load ptr, ptr %q.addr, align 8
  %qh25 = getelementptr inbounds %struct.EHCIQueue, ptr %29, i32 0, i32 6
  %token26 = getelementptr inbounds %struct.EHCIqh, ptr %qh25, i32 0, i32 6
  %30 = load i32, ptr %token26, align 8
  %or = or i32 %30, %28
  store i32 %or, ptr %token26, align 8
  br label %if.end27

if.end27:                                         ; preds = %if.then21, %if.end5
  %31 = load ptr, ptr %q.addr, align 8
  %qh28 = getelementptr inbounds %struct.EHCIQueue, ptr %31, i32 0, i32 6
  %epchar29 = getelementptr inbounds %struct.EHCIqh, ptr %qh28, i32 0, i32 1
  %32 = load i32, ptr %epchar29, align 4
  %and30 = and i32 %32, -268435456
  %shr31 = lshr i32 %and30, 28
  store i32 %shr31, ptr %reload, align 4
  br label %do.body

do.body:                                          ; preds = %if.end27
  %33 = load ptr, ptr %q.addr, align 8
  %qh32 = getelementptr inbounds %struct.EHCIQueue, ptr %33, i32 0, i32 6
  %altnext_qtd33 = getelementptr inbounds %struct.EHCIqh, ptr %qh32, i32 0, i32 5
  %34 = load i32, ptr %altnext_qtd33, align 4
  store i32 %34, ptr %val, align 4
  %35 = load i32, ptr %val, align 4
  %and34 = and i32 %35, -31
  store i32 %and34, ptr %val, align 4
  %36 = load i32, ptr %reload, align 4
  %shl = shl i32 %36, 1
  %and35 = and i32 %shl, 30
  %37 = load i32, ptr %val, align 4
  %or36 = or i32 %37, %and35
  store i32 %or36, ptr %val, align 4
  %38 = load i32, ptr %val, align 4
  %39 = load ptr, ptr %q.addr, align 8
  %qh37 = getelementptr inbounds %struct.EHCIQueue, ptr %39, i32 0, i32 6
  %altnext_qtd38 = getelementptr inbounds %struct.EHCIqh, ptr %qh37, i32 0, i32 5
  store i32 %38, ptr %altnext_qtd38, align 4
  br label %do.end

do.end:                                           ; preds = %do.body
  store i32 0, ptr %i, align 4
  br label %for.cond

for.cond:                                         ; preds = %for.inc, %do.end
  %40 = load i32, ptr %i, align 4
  %cmp39 = icmp slt i32 %40, 5
  br i1 %cmp39, label %for.body, label %for.end

for.body:                                         ; preds = %for.cond
  %41 = load ptr, ptr %p, align 8
  %qtd40 = getelementptr inbounds %struct.EHCIPacket, ptr %41, i32 0, i32 2
  %bufptr = getelementptr inbounds %struct.EHCIqtd, ptr %qtd40, i32 0, i32 3
  %42 = load i32, ptr %i, align 4
  %idxprom = sext i32 %42 to i64
  %arrayidx = getelementptr [5 x i32], ptr %bufptr, i64 0, i64 %idxprom
  %43 = load i32, ptr %arrayidx, align 4
  %44 = load ptr, ptr %q.addr, align 8
  %qh41 = getelementptr inbounds %struct.EHCIQueue, ptr %44, i32 0, i32 6
  %bufptr42 = getelementptr inbounds %struct.EHCIqh, ptr %qh41, i32 0, i32 7
  %45 = load i32, ptr %i, align 4
  %idxprom43 = sext i32 %45 to i64
  %arrayidx44 = getelementptr [5 x i32], ptr %bufptr42, i64 0, i64 %idxprom43
  store i32 %43, ptr %arrayidx44, align 4
  br label %for.inc

for.inc:                                          ; preds = %for.body
  %46 = load i32, ptr %i, align 4
  %inc = add i32 %46, 1
  store i32 %inc, ptr %i, align 4
  br label %for.cond, !llvm.loop !26

for.end:                                          ; preds = %for.cond
  %47 = load ptr, ptr %q.addr, align 8
  %qh45 = getelementptr inbounds %struct.EHCIQueue, ptr %47, i32 0, i32 6
  %epchar46 = getelementptr inbounds %struct.EHCIqh, ptr %qh45, i32 0, i32 1
  %48 = load i32, ptr %epchar46, align 4
  %and47 = and i32 %48, 16384
  %tobool = icmp ne i32 %and47, 0
  br i1 %tobool, label %if.end55, label %if.then48

if.then48:                                        ; preds = %for.end
  %49 = load ptr, ptr %q.addr, align 8
  %qh49 = getelementptr inbounds %struct.EHCIQueue, ptr %49, i32 0, i32 6
  %token50 = getelementptr inbounds %struct.EHCIqh, ptr %qh49, i32 0, i32 6
  %50 = load i32, ptr %token50, align 8
  %and51 = and i32 %50, 2147483647
  store i32 %and51, ptr %token50, align 8
  %51 = load i32, ptr %dtoggle, align 4
  %52 = load ptr, ptr %q.addr, align 8
  %qh52 = getelementptr inbounds %struct.EHCIQueue, ptr %52, i32 0, i32 6
  %token53 = getelementptr inbounds %struct.EHCIqh, ptr %qh52, i32 0, i32 6
  %53 = load i32, ptr %token53, align 8
  %or54 = or i32 %53, %51
  store i32 %or54, ptr %token53, align 8
  br label %if.end55

if.end55:                                         ; preds = %if.then48, %for.end
  %54 = load ptr, ptr %q.addr, align 8
  %qh56 = getelementptr inbounds %struct.EHCIQueue, ptr %54, i32 0, i32 6
  %bufptr57 = getelementptr inbounds %struct.EHCIqh, ptr %qh56, i32 0, i32 7
  %arrayidx58 = getelementptr [5 x i32], ptr %bufptr57, i64 0, i64 1
  %55 = load i32, ptr %arrayidx58, align 4
  %and59 = and i32 %55, -256
  store i32 %and59, ptr %arrayidx58, align 4
  %56 = load ptr, ptr %q.addr, align 8
  %qh60 = getelementptr inbounds %struct.EHCIQueue, ptr %56, i32 0, i32 6
  %bufptr61 = getelementptr inbounds %struct.EHCIqh, ptr %qh60, i32 0, i32 7
  %arrayidx62 = getelementptr [5 x i32], ptr %bufptr61, i64 0, i64 2
  %57 = load i32, ptr %arrayidx62, align 4
  %and63 = and i32 %57, -32
  store i32 %and63, ptr %arrayidx62, align 4
  %58 = load ptr, ptr %q.addr, align 8
  call void @ehci_flush_qh(ptr noundef %58)
  ret i32 0
}