; Function Attrs: nounwind sspstrong uwtable
define internal fastcc void @ehci_qh_do_overlay(ptr noundef nonnull captures(none) %q) unnamed_addr #0 {
entry:
  %packets = getelementptr inbounds nuw i8, ptr %q, i64 120
  %0 = load ptr, ptr %packets, align 8
  %cmp.not = icmp eq ptr %0, null
  br i1 %cmp.not, label %if.else, label %if.end

if.else:                                          ; preds = %entry
  tail call void @__assert_fail(ptr noundef nonnull @.str.46, ptr noundef nonnull @.str.24, i32 noundef 1144, ptr noundef nonnull @__PRETTY_FUNCTION__.ehci_qh_do_overlay) #20
  unreachable

if.end:                                           ; preds = %entry
  %qtdaddr = getelementptr inbounds nuw i8, ptr %0, i64 56
  %1 = load i32, ptr %qtdaddr, align 8
  %qtdaddr1 = getelementptr inbounds nuw i8, ptr %q, i64 100
  %2 = load i32, ptr %qtdaddr1, align 4
  %cmp2 = icmp eq i32 %1, %2
  br i1 %cmp2, label %if.end5, label %if.else4

if.else4:                                         ; preds = %if.end
  tail call void @__assert_fail(ptr noundef nonnull @.str.47, ptr noundef nonnull @.str.24, i32 noundef 1145, ptr noundef nonnull @__PRETTY_FUNCTION__.ehci_qh_do_overlay) #20
  unreachable

if.end5:                                          ; preds = %if.end
  %token = getelementptr inbounds nuw i8, ptr %q, i64 72
  %3 = load i32, ptr %token, align 8
  %and = and i32 %3, -2147483648
  %current_qtd = getelementptr inbounds nuw i8, ptr %q, i64 60
  store i32 %1, ptr %current_qtd, align 4
  %qtd = getelementptr inbounds nuw i8, ptr %0, i64 24
  %4 = load i32, ptr %qtd, align 8
  %next_qtd = getelementptr inbounds nuw i8, ptr %q, i64 64
  store i32 %4, ptr %next_qtd, align 8
  %altnext = getelementptr inbounds nuw i8, ptr %0, i64 28
  %5 = load i32, ptr %altnext, align 4
  %altnext_qtd = getelementptr inbounds nuw i8, ptr %q, i64 68
  store i32 %5, ptr %altnext_qtd, align 4
  %token15 = getelementptr inbounds nuw i8, ptr %0, i64 32
  %6 = load i32, ptr %token15, align 8
  store i32 %6, ptr %token, align 8
  %epchar = getelementptr inbounds nuw i8, ptr %q, i64 52
  %7 = load i32, ptr %epchar, align 4
  %8 = and i32 %7, 12288
  %cmp20 = icmp eq i32 %8, 8192
  br i1 %cmp20, label %if.then21, label %if.end27

if.then21:                                        ; preds = %if.end5
  %and8 = and i32 %3, 1
  %and24 = and i32 %6, -2
  %or = or disjoint i32 %and24, %and8
  store i32 %or, ptr %token, align 8
  br label %if.end27

if.end27:                                         ; preds = %if.then21, %if.end5
  %and34 = and i32 %5, -31
  %9 = lshr i32 %7, 27
  %shl = and i32 %9, 30
  %or36 = or disjoint i32 %shl, %and34
  store i32 %or36, ptr %altnext_qtd, align 4
  %bufptr = getelementptr inbounds nuw i8, ptr %0, i64 36
  %bufptr42 = getelementptr inbounds nuw i8, ptr %q, i64 76
  br label %for.body

for.body:                                         ; preds = %if.end27, %for.body
  %indvars.iv = phi i64 [ 0, %if.end27 ], [ %indvars.iv.next, %for.body ]
  %arrayidx = getelementptr [5 x i32], ptr %bufptr, i64 0, i64 %indvars.iv
  %10 = load i32, ptr %arrayidx, align 4
  %arrayidx44 = getelementptr [5 x i32], ptr %bufptr42, i64 0, i64 %indvars.iv
  store i32 %10, ptr %arrayidx44, align 4
  %indvars.iv.next = add nuw nsw i64 %indvars.iv, 1
  %exitcond.not = icmp eq i64 %indvars.iv.next, 5
  br i1 %exitcond.not, label %for.end, label %for.body, !llvm.loop !27

for.end:                                          ; preds = %for.body
  %and47 = and i32 %7, 16384
  %tobool.not = icmp eq i32 %and47, 0
  br i1 %tobool.not, label %if.then48, label %if.end55

if.then48:                                        ; preds = %for.end
  %11 = load i32, ptr %token, align 8
  %and51 = and i32 %11, 2147483647
  %or54 = or disjoint i32 %and51, %and
  store i32 %or54, ptr %token, align 8
  br label %if.end55

if.end55:                                         ; preds = %if.then48, %for.end
  %arrayidx58 = getelementptr i8, ptr %q, i64 80
  %12 = load i32, ptr %arrayidx58, align 4
  %and59 = and i32 %12, -256
  store i32 %and59, ptr %arrayidx58, align 4
  %arrayidx62 = getelementptr i8, ptr %q, i64 84
  %13 = load i32, ptr %arrayidx62, align 4
  %and63 = and i32 %13, -32
  store i32 %and63, ptr %arrayidx62, align 4
  %qhaddr.i = getelementptr inbounds nuw i8, ptr %q, i64 96
  %14 = load i32, ptr %qhaddr.i, align 8
  %and.i = and i32 %14, -32
  %15 = load ptr, ptr %q, align 8
  %16 = or disjoint i32 %and.i, 12
  tail call fastcc void @put_dwords(ptr noundef %15, i32 noundef %16, ptr noundef nonnull readonly %current_qtd, i32 noundef 9)
  ret void
}